(lp0
((F4.118159819081295
F2.038382467868388
tp1
(F2.2689280275926285
F3.5081117965086026
tp2
tp3
a((F15.970690379262704
F7.792918652449213
tp4
(F0.5934119456780721
F1.6057029118347832
tp5
tp6
a((F6.6633973799802515
F5.3366026200197485
tp7
(F1.6406094968746698
F3.07177948351002
tp8
tp9
a((F2.2454789427422766
F1.6323470040611547
tp10
(F2.827433388230814
F3.12413936106985
tp11
tp12
a((F2.9617673543523946
F2.6772464802476486
tp13
(F2.5132741228718345
F3.193952531149623
tp14
tp15
a((F9.165144011652332
F0.1733872199966333
tp16
(F1.7976891295541595
F4.363323129985824
tp17
tp18
a((F9.668765519755917
F2.8280135638222426
tp19
(F1.064650843716541
F3.4557519189487724
tp20
tp21
a((F3.790305641117195
F1.1537972978489046
tp22
(F2.4085543677521746
F3.595378259108319
tp23
tp24
a((F18.488299176940785
F7.596822276129462
tp25
(F0.8203047484373349
F0.9075712110370514
tp26
tp27
a((F13.54508497187474
F4.755282581475769
tp28
(F0.20943951023931956
F2.3038346126325147
tp29
tp30
a.